target datalayout = "e-m:e-p270:32:32-p271:32:32-p272:64:64-i64:64-i128:128-f80:128-n8:16:32:64-S128"
target triple = "x86_64-pc-linux-gnu"

%"class.llvm::APInt" = type <{ %union.anon, i32, [4 x i8] }>
%union.anon = type { i64 }
%"class.llvm::function_ref" = type { ptr, i64 }

; Function Attrs: mustprogress nounwind uwtable
define linkonce_odr hidden noundef zeroext i1 @_ZNK4llvm5APInt12isSingleWordEv(ptr noundef nonnull align 8 dereferenceable(12) %0) #0 comdat align 2 {
  %2 = alloca ptr, align 8
  store ptr %0, ptr %2, align 8
  %3 = load ptr, ptr %2, align 8
  %4 = getelementptr inbounds nuw %"class.llvm::APInt", ptr %3, i32 0, i32 1
  %5 = load i32, ptr %4, align 8
  %6 = icmp ule i32 %5, 64
  ret i1 %6
}

; Function Attrs: mustprogress nounwind uwtable
define linkonce_odr hidden noundef zeroext i1 @_ZNK4llvm5APInt12needsCleanupEv(ptr noundef nonnull align 8 dereferenceable(12) %0) #0 comdat align 2 {
  %2 = alloca ptr, align 8
  store ptr %0, ptr %2, align 8
  %3 = load ptr, ptr %2, align 8
  %4 = call noundef zeroext i1 @_ZNK4llvm5APInt12isSingleWordEv(ptr noundef nonnull align 8 dereferenceable(12) %3)
  %5 = xor i1 %4, true
  ret i1 %5
}

; Function Attrs: mustprogress nounwind uwtable
define linkonce_odr noundef nonnull align 4 dereferenceable(4) ptr @_ZSt3maxIjERKT_S2_S2_(ptr noundef nonnull align 4 dereferenceable(4) %0, ptr noundef nonnull align 4 dereferenceable(4) %1) #0 comdat {
  %3 = alloca ptr, align 8
  %4 = alloca ptr, align 8
  %5 = alloca ptr, align 8
  store ptr %0, ptr %4, align 8
  store ptr %1, ptr %5, align 8
  %6 = load ptr, ptr %4, align 8
  %7 = load i32, ptr %6, align 4
  %8 = load ptr, ptr %5, align 8
  %9 = load i32, ptr %8, align 4
  %10 = icmp ult i32 %7, %9
  br i1 %10, label %11, label %13

11:                                               ; preds = %2
  %12 = load ptr, ptr %5, align 8
  store ptr %12, ptr %3, align 8
  br label %15

13:                                               ; preds = %2
  %14 = load ptr, ptr %4, align 8
  store ptr %14, ptr %3, align 8
  br label %15

15:                                               ; preds = %13, %11
  %16 = load ptr, ptr %3, align 8
  ret ptr %16
}

; Function Attrs: mustprogress nounwind uwtable
define linkonce_odr hidden noundef i32 @_ZNK4llvm5APInt11getBitWidthEv(ptr noundef nonnull align 8 dereferenceable(12) %0) #0 comdat align 2 {
  %2 = alloca ptr, align 8
  store ptr %0, ptr %2, align 8
  %3 = load ptr, ptr %2, align 8
  %4 = getelementptr inbounds nuw %"class.llvm::APInt", ptr %3, i32 0, i32 1
  %5 = load i32, ptr %4, align 8
  ret i32 %5
}

; Function Attrs: mustprogress nounwind uwtable
define linkonce_odr hidden noundef nonnull align 8 dereferenceable(12) ptr @_ZN4llvm5APIntaSEOS0_(ptr noundef nonnull align 8 dereferenceable(12) %0, ptr noundef nonnull align 8 dereferenceable(12) %1) #0 comdat align 2 {
  %3 = alloca ptr, align 8
  %4 = alloca ptr, align 8
  store ptr %0, ptr %3, align 8
  store ptr %1, ptr %4, align 8
  %5 = load ptr, ptr %3, align 8
  %6 = call noundef zeroext i1 @_ZNK4llvm5APInt12isSingleWordEv(ptr noundef nonnull align 8 dereferenceable(12) %5)
  br i1 %6, label %13, label %7

7:                                                ; preds = %2
  %8 = getelementptr inbounds nuw %"class.llvm::APInt", ptr %5, i32 0, i32 0
  %9 = load ptr, ptr %8, align 8
  %10 = icmp eq ptr %9, null
  br i1 %10, label %12, label %11

11:                                               ; preds = %7
  call void @_ZdaPv(ptr noundef %9) #7
  br label %12

12:                                               ; preds = %11, %7
  br label %13

13:                                               ; preds = %12, %2
  %14 = getelementptr inbounds nuw %"class.llvm::APInt", ptr %5, i32 0, i32 0
  %15 = load ptr, ptr %4, align 8
  %16 = getelementptr inbounds nuw %"class.llvm::APInt", ptr %15, i32 0, i32 0
  call void @llvm.memcpy.p0.p0.i64(ptr align 8 %14, ptr align 8 %16, i64 8, i1 false)
  %17 = load ptr, ptr %4, align 8
  %18 = getelementptr inbounds nuw %"class.llvm::APInt", ptr %17, i32 0, i32 1
  %19 = load i32, ptr %18, align 8
  %20 = getelementptr inbounds nuw %"class.llvm::APInt", ptr %5, i32 0, i32 1
  store i32 %19, ptr %20, align 8
  %21 = load ptr, ptr %4, align 8
  %22 = getelementptr inbounds nuw %"class.llvm::APInt", ptr %21, i32 0, i32 1
  store i32 0, ptr %22, align 8
  ret ptr %5
}

; Function Attrs: mustprogress nounwind uwtable
define linkonce_odr hidden void @_ZN4llvm5APIntD2Ev(ptr noundef nonnull align 8 dereferenceable(12) %0) unnamed_addr #0 comdat align 2 {
  %2 = alloca ptr, align 8
  store ptr %0, ptr %2, align 8
  %3 = load ptr, ptr %2, align 8
  %4 = call noundef zeroext i1 @_ZNK4llvm5APInt12needsCleanupEv(ptr noundef nonnull align 8 dereferenceable(12) %3)
  br i1 %4, label %5, label %11

5:                                                ; preds = %1
  %6 = getelementptr inbounds nuw %"class.llvm::APInt", ptr %3, i32 0, i32 0
  %7 = load ptr, ptr %6, align 8
  %8 = icmp eq ptr %7, null
  br i1 %8, label %10, label %9

9:                                                ; preds = %5
  call void @_ZdaPv(ptr noundef %7) #7
  br label %10

10:                                               ; preds = %9, %5
  br label %11

11:                                               ; preds = %10, %1
  ret void
}

; Function Attrs: mustprogress nounwind uwtable
define linkonce_odr hidden void @_ZNK4llvm12function_refIFNS_5APIntERKS1_S3_RbEEclES3_S3_S4_(ptr dead_on_unwind noalias writable sret(%"class.llvm::APInt") align 8 %0, ptr noundef nonnull align 8 dereferenceable(16) %1, ptr noundef nonnull align 8 dereferenceable(12) %2, ptr noundef nonnull align 8 dereferenceable(12) %3, ptr noundef nonnull align 1 dereferenceable(1) %4) #0 comdat align 2 {
  %6 = alloca ptr, align 8
  %7 = alloca ptr, align 8
  %8 = alloca ptr, align 8
  %9 = alloca ptr, align 8
  %10 = alloca ptr, align 8
  store ptr %0, ptr %6, align 8
  store ptr %1, ptr %7, align 8
  store ptr %2, ptr %8, align 8
  store ptr %3, ptr %9, align 8
  store ptr %4, ptr %10, align 8
  %11 = load ptr, ptr %7, align 8
  %12 = getelementptr inbounds nuw %"class.llvm::function_ref", ptr %11, i32 0, i32 0
  %13 = load ptr, ptr %12, align 8
  %14 = getelementptr inbounds nuw %"class.llvm::function_ref", ptr %11, i32 0, i32 1
  %15 = load i64, ptr %14, align 8
  %16 = load ptr, ptr %8, align 8
  %17 = load ptr, ptr %9, align 8
  %18 = load ptr, ptr %10, align 8
  call void %13(ptr dead_on_unwind writable sret(%"class.llvm::APInt") align 8 %0, i64 noundef %15, ptr noundef nonnull align 8 dereferenceable(12) %16, ptr noundef nonnull align 8 dereferenceable(12) %17, ptr noundef nonnull align 1 dereferenceable(1) %18)
  ret void
}

; Function Attrs: mustprogress nounwind uwtable
define internal noundef i32 @_ZL11getMaxWidthRKN4llvm5APIntES2_(ptr noundef nonnull align 8 dereferenceable(12) %0, ptr noundef nonnull align 8 dereferenceable(12) %1) #0 {
  %3 = alloca ptr, align 8
  %4 = alloca ptr, align 8
  %5 = alloca i32, align 4
  %6 = alloca i32, align 4
  store ptr %0, ptr %3, align 8
  store ptr %1, ptr %4, align 8
  %7 = load ptr, ptr %3, align 8
  %8 = call noundef i32 @_ZNK4llvm5APInt11getBitWidthEv(ptr noundef nonnull align 8 dereferenceable(12) %7)
  store i32 %8, ptr %5, align 4
  %9 = load ptr, ptr %4, align 8
  %10 = call noundef i32 @_ZNK4llvm5APInt11getBitWidthEv(ptr noundef nonnull align 8 dereferenceable(12) %9)
  store i32 %10, ptr %6, align 4
  %11 = call noundef nonnull align 4 dereferenceable(4) ptr @_ZSt3maxIjERKT_S2_S2_(ptr noundef nonnull align 4 dereferenceable(4) %5, ptr noundef nonnull align 4 dereferenceable(4) %6)
  %12 = load i32, ptr %11, align 4
  ret i32 %12
}

; Function Attrs: mustprogress nounwind uwtable
define dso_local void @_Z25runOpWithExpandOnOverflowRKN4llvm5APIntES2_NS_12function_refIFS0_S2_S2_RbEEE(ptr dead_on_unwind noalias writable sret(%"class.llvm::APInt") align 8 %0, ptr noundef nonnull align 8 dereferenceable(12) %1, ptr noundef nonnull align 8 dereferenceable(12) %2, ptr %3, i64 %4) #0 {
  %6 = alloca ptr, align 8
  %7 = alloca %"class.llvm::function_ref", align 8
  %8 = alloca ptr, align 8
  %9 = alloca ptr, align 8
  %10 = alloca i8, align 1
  %11 = alloca i32, align 4
  %12 = alloca i1, align 1
  %13 = alloca %"class.llvm::APInt", align 8
  %14 = alloca %"class.llvm::APInt", align 8
  %15 = alloca i32, align 4
  %16 = alloca %"class.llvm::APInt", align 8
  %17 = alloca %"class.llvm::APInt", align 8
  %18 = alloca %"class.llvm::APInt", align 8
  store ptr %0, ptr %6, align 8
  %19 = getelementptr inbounds nuw { ptr, i64 }, ptr %7, i32 0, i32 0
  store ptr %3, ptr %19, align 8
  %20 = getelementptr inbounds nuw { ptr, i64 }, ptr %7, i32 0, i32 1
  store i64 %4, ptr %20, align 8
  store ptr %1, ptr %8, align 8
  store ptr %2, ptr %9, align 8
  %21 = load ptr, ptr %8, align 8
  %22 = load ptr, ptr %9, align 8
  %23 = call noundef i32 @_ZL11getMaxWidthRKN4llvm5APIntES2_(ptr noundef nonnull align 8 dereferenceable(12) %21, ptr noundef nonnull align 8 dereferenceable(12) %22)
  store i32 %23, ptr %11, align 4
  store i1 false, ptr %12, align 1
  %24 = load ptr, ptr %8, align 8
  %25 = load i32, ptr %11, align 4
  call void @_ZNK4llvm5APInt4sextEj(ptr dead_on_unwind writable sret(%"class.llvm::APInt") align 8 %13, ptr noundef nonnull align 8 dereferenceable(12) %24, i32 noundef %25)
  %26 = load ptr, ptr %9, align 8
  %27 = load i32, ptr %11, align 4
  call void @_ZNK4llvm5APInt4sextEj(ptr dead_on_unwind writable sret(%"class.llvm::APInt") align 8 %14, ptr noundef nonnull align 8 dereferenceable(12) %26, i32 noundef %27)
  call void @_ZNK4llvm12function_refIFNS_5APIntERKS1_S3_RbEEclES3_S3_S4_(ptr dead_on_unwind writable sret(%"class.llvm::APInt") align 8 %0, ptr noundef nonnull align 8 dereferenceable(16) %7, ptr noundef nonnull align 8 dereferenceable(12) %13, ptr noundef nonnull align 8 dereferenceable(12) %14, ptr noundef nonnull align 1 dereferenceable(1) %10)
  call void @_ZN4llvm5APIntD2Ev(ptr noundef nonnull align 8 dereferenceable(12) %14) #5
  call void @_ZN4llvm5APIntD2Ev(ptr noundef nonnull align 8 dereferenceable(12) %13) #5
  %28 = load i8, ptr %10, align 1
  %29 = trunc i8 %28 to i1
  br i1 %29, label %31, label %30

30:                                               ; preds = %5
  store i1 true, ptr %12, align 1
  store i32 1, ptr %15, align 4
  br label %39

31:                                               ; preds = %5
  %32 = load i32, ptr %11, align 4
  %33 = mul i32 %32, 2
  store i32 %33, ptr %11, align 4
  %34 = load ptr, ptr %8, align 8
  %35 = load i32, ptr %11, align 4
  call void @_ZNK4llvm5APInt4sextEj(ptr dead_on_unwind writable sret(%"class.llvm::APInt") align 8 %17, ptr noundef nonnull align 8 dereferenceable(12) %34, i32 noundef %35)
  %36 = load ptr, ptr %9, align 8
  %37 = load i32, ptr %11, align 4
  call void @_ZNK4llvm5APInt4sextEj(ptr dead_on_unwind writable sret(%"class.llvm::APInt") align 8 %18, ptr noundef nonnull align 8 dereferenceable(12) %36, i32 noundef %37)
  call void @_ZNK4llvm12function_refIFNS_5APIntERKS1_S3_RbEEclES3_S3_S4_(ptr dead_on_unwind writable sret(%"class.llvm::APInt") align 8 %16, ptr noundef nonnull align 8 dereferenceable(16) %7, ptr noundef nonnull align 8 dereferenceable(12) %17, ptr noundef nonnull align 8 dereferenceable(12) %18, ptr noundef nonnull align 1 dereferenceable(1) %10)
  %38 = call noundef nonnull align 8 dereferenceable(12) ptr @_ZN4llvm5APIntaSEOS0_(ptr noundef nonnull align 8 dereferenceable(12) %0, ptr noundef nonnull align 8 dereferenceable(12) %16)
  call void @_ZN4llvm5APIntD2Ev(ptr noundef nonnull align 8 dereferenceable(12) %16) #5
  call void @_ZN4llvm5APIntD2Ev(ptr noundef nonnull align 8 dereferenceable(12) %18) #5
  call void @_ZN4llvm5APIntD2Ev(ptr noundef nonnull align 8 dereferenceable(12) %17) #5
  store i1 true, ptr %12, align 1
  store i32 1, ptr %15, align 4
  br label %39

39:                                               ; preds = %31, %30
  %40 = load i1, ptr %12, align 1
  br i1 %40, label %42, label %41

41:                                               ; preds = %39
  call void @_ZN4llvm5APIntD2Ev(ptr noundef nonnull align 8 dereferenceable(12) %0) #5
  br label %42

42:                                               ; preds = %41, %39
  ret void
}