; Function Attrs: mustprogress nounwind uwtable
define dso_local void @_Z25runOpWithExpandOnOverflowRKN4llvm5APIntES2_NS_12function_refIFS0_S2_S2_RbEEE(ptr dead_on_unwind noalias writable sret(%"class.llvm::APInt") align 8 %0, ptr noundef nonnull align 8 dereferenceable(12) %1, ptr noundef nonnull align 8 dereferenceable(12) %2, ptr nocapture readonly %3, i64 %4) local_unnamed_addr #1 {
  %6 = alloca i8, align 1
  %7 = alloca %"class.llvm::APInt", align 8
  %8 = alloca %"class.llvm::APInt", align 8
  %9 = alloca %"class.llvm::APInt", align 8
  %10 = alloca %"class.llvm::APInt", align 8
  %11 = alloca %"class.llvm::APInt", align 8
  %12 = getelementptr inbounds i8, ptr %1, i64 8
  %.val = load i32, ptr %12, align 8
  %13 = getelementptr inbounds i8, ptr %2, i64 8
  %.val11 = load i32, ptr %13, align 8
  %.sroa.speculated.i = tail call noundef i32 @llvm.umax.i32(i32 %.val, i32 %.val11)
  call void @_ZNK4llvm5APInt4sextEj(ptr dead_on_unwind nonnull writable sret(%"class.llvm::APInt") align 8 %7, ptr noundef nonnull align 8 dereferenceable(12) %1, i32 noundef %.sroa.speculated.i) #9
  call void @_ZNK4llvm5APInt4sextEj(ptr dead_on_unwind nonnull writable sret(%"class.llvm::APInt") align 8 %8, ptr noundef nonnull align 8 dereferenceable(12) %2, i32 noundef %.sroa.speculated.i) #9
  call void %3(ptr dead_on_unwind writable sret(%"class.llvm::APInt") align 8 %0, i64 noundef %4, ptr noundef nonnull align 8 dereferenceable(12) %7, ptr noundef nonnull align 8 dereferenceable(12) %8, ptr noundef nonnull align 1 dereferenceable(1) %6) #9
  %14 = getelementptr inbounds nuw i8, ptr %8, i64 8
  %15 = load i32, ptr %14, align 8
  %16 = icmp ugt i32 %15, 64
  br i1 %16, label %17, label %_ZN4llvm5APIntD2Ev.exit

17:                                               ; preds = %5
  %18 = load ptr, ptr %8, align 8
  %19 = icmp eq ptr %18, null
  br i1 %19, label %_ZN4llvm5APIntD2Ev.exit, label %20

20:                                               ; preds = %17
  call void @_ZdaPv(ptr noundef nonnull %18) #10
  br label %_ZN4llvm5APIntD2Ev.exit

_ZN4llvm5APIntD2Ev.exit:                          ; preds = %5, %17, %20
  %21 = getelementptr inbounds nuw i8, ptr %7, i64 8
  %22 = load i32, ptr %21, align 8
  %23 = icmp ugt i32 %22, 64
  br i1 %23, label %24, label %_ZN4llvm5APIntD2Ev.exit12

24:                                               ; preds = %_ZN4llvm5APIntD2Ev.exit
  %25 = load ptr, ptr %7, align 8
  %26 = icmp eq ptr %25, null
  br i1 %26, label %_ZN4llvm5APIntD2Ev.exit12, label %27

27:                                               ; preds = %24
  call void @_ZdaPv(ptr noundef nonnull %25) #10
  br label %_ZN4llvm5APIntD2Ev.exit12

_ZN4llvm5APIntD2Ev.exit12:                        ; preds = %_ZN4llvm5APIntD2Ev.exit, %24, %27
  %28 = load i8, ptr %6, align 1
  %29 = trunc i8 %28 to i1
  br i1 %29, label %30, label %_ZN4llvm5APIntD2Ev.exit15

30:                                               ; preds = %_ZN4llvm5APIntD2Ev.exit12
  %31 = shl i32 %.sroa.speculated.i, 1
  call void @_ZNK4llvm5APInt4sextEj(ptr dead_on_unwind nonnull writable sret(%"class.llvm::APInt") align 8 %10, ptr noundef nonnull align 8 dereferenceable(12) %1, i32 noundef %31) #9
  call void @_ZNK4llvm5APInt4sextEj(ptr dead_on_unwind nonnull writable sret(%"class.llvm::APInt") align 8 %11, ptr noundef nonnull align 8 dereferenceable(12) %2, i32 noundef %31) #9
  call void %3(ptr dead_on_unwind nonnull writable sret(%"class.llvm::APInt") align 8 %9, i64 noundef %4, ptr noundef nonnull align 8 dereferenceable(12) %10, ptr noundef nonnull align 8 dereferenceable(12) %11, ptr noundef nonnull align 1 dereferenceable(1) %6) #9
  %32 = getelementptr inbounds nuw i8, ptr %0, i64 8
  %33 = load i32, ptr %32, align 8
  %34 = icmp ult i32 %33, 65
  br i1 %34, label %_ZN4llvm5APIntD2Ev.exit13, label %35

35:                                               ; preds = %30
  %36 = load ptr, ptr %0, align 8
  %37 = icmp eq ptr %36, null
  br i1 %37, label %_ZN4llvm5APIntD2Ev.exit13, label %38

38:                                               ; preds = %35
  call void @_ZdaPv(ptr noundef nonnull %36) #10
  br label %_ZN4llvm5APIntD2Ev.exit13

_ZN4llvm5APIntD2Ev.exit13:                        ; preds = %38, %35, %30
  %39 = load i64, ptr %9, align 8
  store i64 %39, ptr %0, align 8
  %40 = getelementptr inbounds nuw i8, ptr %9, i64 8
  %41 = load i32, ptr %40, align 8
  store i32 %41, ptr %32, align 8
  store i32 0, ptr %40, align 8
  %42 = getelementptr inbounds nuw i8, ptr %11, i64 8
  %43 = load i32, ptr %42, align 8
  %44 = icmp ugt i32 %43, 64
  br i1 %44, label %45, label %_ZN4llvm5APIntD2Ev.exit14

45:                                               ; preds = %_ZN4llvm5APIntD2Ev.exit13
  %46 = load ptr, ptr %11, align 8
  %47 = icmp eq ptr %46, null
  br i1 %47, label %_ZN4llvm5APIntD2Ev.exit14, label %48

48:                                               ; preds = %45
  call void @_ZdaPv(ptr noundef nonnull %46) #10
  br label %_ZN4llvm5APIntD2Ev.exit14

_ZN4llvm5APIntD2Ev.exit14:                        ; preds = %_ZN4llvm5APIntD2Ev.exit13, %45, %48
  %49 = getelementptr inbounds nuw i8, ptr %10, i64 8
  %50 = load i32, ptr %49, align 8
  %51 = icmp ugt i32 %50, 64
  br i1 %51, label %52, label %_ZN4llvm5APIntD2Ev.exit15

52:                                               ; preds = %_ZN4llvm5APIntD2Ev.exit14
  %53 = load ptr, ptr %10, align 8
  %54 = icmp eq ptr %53, null
  br i1 %54, label %_ZN4llvm5APIntD2Ev.exit15, label %55

55:                                               ; preds = %52
  call void @_ZdaPv(ptr noundef nonnull %53) #10
  br label %_ZN4llvm5APIntD2Ev.exit15

_ZN4llvm5APIntD2Ev.exit15:                        ; preds = %55, %52, %_ZN4llvm5APIntD2Ev.exit14, %_ZN4llvm5APIntD2Ev.exit12
  ret void
}